target datalayout = "e-m:e-p270:32:32-p271:32:32-p272:64:64-i64:64-i128:128-f80:128-n8:16:32:64-S128"
target triple = "x86_64-pc-linux-gnu"

%struct.pme_load_balancing_t = type { i8, i8, i64, i8, i8, i32, i8, float, float, float, float, float, float, float, [3 x [3 x float]], %"class.std::vector", i32, i32, i32, i32, i32, i32, i32, i32, i32, double, double }
%"class.std::vector" = type { %"struct.std::_Vector_base" }
%"struct.std::_Vector_base" = type { %"struct.std::_Vector_base<pme_setup_t, std::allocator<pme_setup_t>>::_Vector_impl" }
%"struct.std::_Vector_base<pme_setup_t, std::allocator<pme_setup_t>>::_Vector_impl" = type { %"struct.std::_Vector_base<pme_setup_t, std::allocator<pme_setup_t>>::_Vector_impl_data" }
%"struct.std::_Vector_base<pme_setup_t, std::allocator<pme_setup_t>>::_Vector_impl_data" = type { ptr, ptr, ptr }

; Function Attrs: mustprogress nounwind uwtable
define noundef zeroext i1 @_Z21pme_loadbal_is_activePK20pme_load_balancing_t(ptr noundef %0) #0 {
  %2 = alloca ptr, align 8
  store ptr %0, ptr %2, align 8
  %3 = load ptr, ptr %2, align 8
  %4 = icmp ne ptr %3, null
  br i1 %4, label %5, label %10

5:                                                ; preds = %1
  %6 = load ptr, ptr %2, align 8
  %7 = getelementptr inbounds %struct.pme_load_balancing_t, ptr %6, i32 0, i32 1
  %8 = load i8, ptr %7, align 1
  %9 = trunc i8 %8 to i1
  br label %10

10:                                               ; preds = %5, %1
  %11 = phi i1 [ false, %1 ], [ %9, %5 ]
  ret i1 %11
}