; Function Attrs: mustprogress nofree norecurse nosync nounwind willreturn memory(argmem: read) uwtable
define noundef zeroext i1 @_Z21pme_loadbal_is_activePK20pme_load_balancing_t(ptr noundef readonly %0) local_unnamed_addr #0 {
  %.not = icmp eq ptr %0, null
  br i1 %.not, label %6, label %2

2:                                                ; preds = %1
  %3 = getelementptr inbounds i8, ptr %0, i64 1
  %4 = load i8, ptr %3, align 1
  %5 = trunc i8 %4 to i1
  br label %6

6:                                                ; preds = %2, %1
  %7 = phi i1 [ false, %1 ], [ %5, %2 ]
  ret i1 %7
}